target datalayout = "e-m:e-p270:32:32-p271:32:32-p272:64:64-i64:64-i128:128-f80:128-n8:16:32:64-S128"
target triple = "x86_64-pc-linux-gnu"

%"class.cvc5::main::(anonymous namespace)::Pipe" = type { [2 x i32] }

@.str.143 = private unnamed_addr constant [25 x i8] c"Unable to read from pipe\00", align 1
@_ZTIN4cvc58internal9ExceptionE = external constant ptr

; Function Attrs: mustprogress uwtable
define internal void @_ZN4cvc54main12_GLOBAL__N_14Pipe7flushToERSo(ptr noundef nonnull align 4 dereferenceable(8) %0, ptr noundef nonnull align 8 dereferenceable(8) %1) #4 align 2 personality ptr @__gxx_personality_v0 {
  %3 = alloca ptr, align 8
  %4 = alloca ptr, align 8
  %5 = alloca [4096 x i8], align 16
  %6 = alloca i64, align 8
  %7 = alloca i32, align 4
  %8 = alloca ptr, align 8
  %9 = alloca i32, align 4
  store ptr %0, ptr %3, align 8, !tbaa !335
  store ptr %1, ptr %4, align 8, !tbaa !122
  %10 = load ptr, ptr %3, align 8
  call void @llvm.lifetime.start.p0(i64 4096, ptr %5) #3
  br label %11

11:                                               ; preds = %44, %42, %2
  br label %12

12:                                               ; preds = %11
  call void @llvm.lifetime.start.p0(i64 8, ptr %6) #3
  %13 = getelementptr inbounds nuw %"class.cvc5::main::(anonymous namespace)::Pipe", ptr %10, i32 0, i32 0
  %14 = getelementptr inbounds [2 x i32], ptr %13, i64 0, i64 0
  %15 = load i32, ptr %14, align 4, !tbaa !114
  %16 = getelementptr inbounds [4096 x i8], ptr %5, i64 0, i64 0
  %17 = call i64 @read(i32 noundef %15, ptr noundef %16, i64 noundef 4096)
  store i64 %17, ptr %6, align 8, !tbaa !65
  %18 = load i64, ptr %6, align 8, !tbaa !65
  %19 = icmp eq i64 %18, -1
  br i1 %19, label %20, label %32

20:                                               ; preds = %12
  %21 = call ptr @__errno_location() #26
  %22 = load i32, ptr %21, align 4, !tbaa !114
  %23 = icmp eq i32 %22, 4
  br i1 %23, label %24, label %25

24:                                               ; preds = %20
  store i32 2, ptr %7, align 4
  br label %42, !llvm.loop !337

25:                                               ; preds = %20
  %26 = call ptr @__cxa_allocate_exception(i64 40) #3
  invoke void @_ZN4cvc58internal9ExceptionC2EPKc(ptr noundef nonnull align 8 dereferenceable(40) %26, ptr noundef @.str.143)
          to label %27 unwind label %28

27:                                               ; preds = %25
  call void @__cxa_throw(ptr %26, ptr @_ZTIN4cvc58internal9ExceptionE, ptr @_ZN4cvc58internal9ExceptionD2Ev) #23
  unreachable

28:                                               ; preds = %25
  %29 = landingpad { ptr, i32 }
          cleanup
  %30 = extractvalue { ptr, i32 } %29, 0
  store ptr %30, ptr %8, align 8
  %31 = extractvalue { ptr, i32 } %29, 1
  store i32 %31, ptr %9, align 4
  call void @__cxa_free_exception(ptr %26) #3
  call void @llvm.lifetime.end.p0(i64 8, ptr %6) #3
  call void @llvm.lifetime.end.p0(i64 4096, ptr %5) #3
  br label %46

32:                                               ; preds = %12
  %33 = load i64, ptr %6, align 8, !tbaa !65
  %34 = icmp eq i64 %33, 0
  br i1 %34, label %35, label %36

35:                                               ; preds = %32
  store i32 3, ptr %7, align 4
  br label %42

36:                                               ; preds = %32
  br label %37

37:                                               ; preds = %36
  %38 = load ptr, ptr %4, align 8, !tbaa !122
  %39 = getelementptr inbounds [4096 x i8], ptr %5, i64 0, i64 0
  %40 = load i64, ptr %6, align 8, !tbaa !65
  %41 = call noundef nonnull align 8 dereferenceable(8) ptr @_ZNSo5writeEPKcl(ptr noundef nonnull align 8 dereferenceable(8) %38, ptr noundef %39, i64 noundef %40)
  store i32 0, ptr %7, align 4
  br label %42

42:                                               ; preds = %37, %35, %24
  call void @llvm.lifetime.end.p0(i64 8, ptr %6) #3
  %43 = load i32, ptr %7, align 4
  switch i32 %43, label %51 [
    i32 0, label %44
    i32 2, label %11
    i32 3, label %45
  ]

44:                                               ; preds = %42
  br label %11, !llvm.loop !337

45:                                               ; preds = %42
  call void @llvm.lifetime.end.p0(i64 4096, ptr %5) #3
  ret void

46:                                               ; preds = %28
  %47 = load ptr, ptr %8, align 8
  %48 = load i32, ptr %9, align 4
  %49 = insertvalue { ptr, i32 } poison, ptr %47, 0
  %50 = insertvalue { ptr, i32 } %49, i32 %48, 1
  resume { ptr, i32 } %50

51:                                               ; preds = %42
  unreachable
}