; Function Attrs: mustprogress uwtable
define internal fastcc void @_ZN4cvc54main12_GLOBAL__N_14Pipe7flushToERSo(ptr noundef nonnull readonly align 4 captures(none) dereferenceable(8) %0, ptr noundef nonnull align 8 dereferenceable(8) %1) unnamed_addr #3 align 2 personality ptr @__gxx_personality_v0 {
  %3 = alloca [4096 x i8], align 16
  call void @llvm.lifetime.start.p0(i64 4096, ptr nonnull %3) #26
  br label %4

4:                                                ; preds = %.backedge, %2
  %5 = load i32, ptr %0, align 4, !tbaa !20
  %6 = call i64 @read(i32 noundef %5, ptr noundef nonnull %3, i64 noundef 4096)
  switch i64 %6, label %16 [
    i64 -1, label %7
    i64 0, label %18
  ]

7:                                                ; preds = %4
  %8 = tail call ptr @__errno_location() #31
  %9 = load i32, ptr %8, align 4, !tbaa !20
  %10 = icmp eq i32 %9, 4
  br i1 %10, label %.backedge, label %11

.backedge:                                        ; preds = %7, %16
  br label %4, !llvm.loop !172

11:                                               ; preds = %7
  %12 = call ptr @__cxa_allocate_exception(i64 40) #26
  invoke void @_ZN4cvc58internal9ExceptionC2EPKc(ptr noundef nonnull align 8 dereferenceable(40) %12, ptr noundef nonnull @.str.143)
          to label %13 unwind label %14

13:                                               ; preds = %11
  call void @__cxa_throw(ptr nonnull %12, ptr nonnull @_ZTIN4cvc58internal9ExceptionE, ptr nonnull @_ZN4cvc58internal9ExceptionD2Ev) #28
  unreachable

14:                                               ; preds = %11
  %15 = landingpad { ptr, i32 }
          cleanup
  call void @__cxa_free_exception(ptr nonnull %12) #26
  call void @llvm.lifetime.end.p0(i64 4096, ptr nonnull %3) #26
  resume { ptr, i32 } %15

16:                                               ; preds = %4
  %17 = call noundef nonnull align 8 dereferenceable(8) ptr @_ZNSo5writeEPKcl(ptr noundef nonnull align 8 dereferenceable(8) %1, ptr noundef nonnull %3, i64 noundef %6)
  br label %.backedge

18:                                               ; preds = %4
  call void @llvm.lifetime.end.p0(i64 4096, ptr nonnull %3) #26
  ret void
}